; Function Attrs: mustprogress uwtable
define hidden noundef ptr @_Z32pj_projection_specific_setup_aeaP8PJconsts(ptr noundef %0) local_unnamed_addr #0 {
  %2 = tail call noalias dereferenceable_or_null(88) ptr @calloc(i64 noundef 1, i64 noundef 88) #6
  %3 = icmp eq ptr %2, null
  br i1 %3, label %4, label %6

4:                                                ; preds = %1
  %5 = tail call noundef ptr @_Z21pj_default_destructorP8PJconstsi(ptr noundef %0, i32 noundef 4096)
  br label %19

6:                                                ; preds = %1
  %7 = getelementptr inbounds nuw i8, ptr %0, i64 88
  store ptr %2, ptr %7, align 8, !tbaa !3
  %8 = getelementptr inbounds nuw i8, ptr %0, i64 152
  store ptr @_ZL17pj_aea_destructorP8PJconstsi, ptr %8, align 8, !tbaa !36
  %9 = load ptr, ptr %0, align 8, !tbaa !37
  %10 = getelementptr inbounds nuw i8, ptr %0, i64 24
  %11 = load ptr, ptr %10, align 8, !tbaa !38
  %12 = tail call i64 @_Z8pj_paramP6pj_ctxP8ARG_listPKc(ptr noundef %9, ptr noundef %11, ptr noundef nonnull @.str.1)
  %13 = getelementptr inbounds nuw i8, ptr %2, i64 56
  store i64 %12, ptr %13, align 8, !tbaa !39
  %14 = load ptr, ptr %0, align 8, !tbaa !37
  %15 = load ptr, ptr %10, align 8, !tbaa !38
  %16 = tail call i64 @_Z8pj_paramP6pj_ctxP8ARG_listPKc(ptr noundef %14, ptr noundef %15, ptr noundef nonnull @.str.2)
  %17 = getelementptr inbounds nuw i8, ptr %2, i64 64
  store i64 %16, ptr %17, align 8, !tbaa !42
  %18 = tail call fastcc noundef ptr @_ZL5setupP8PJconsts(ptr noundef nonnull %0)
  br label %19

19:                                               ; preds = %6, %4
  %.0 = phi ptr [ %5, %4 ], [ %18, %6 ]
  ret ptr %.0
}